target datalayout = "e-m:e-p270:32:32-p271:32:32-p272:64:64-i64:64-i128:128-f80:128-n8:16:32:64-S128"
target triple = "x86_64-pc-linux-gnu"

; Function Attrs: nounwind uwtable
define internal void @shadow_blur_corner(i32 noundef %0, i32 noundef %1, ptr noundef %2) #0 {
  %4 = alloca i32, align 4
  %5 = alloca i32, align 4
  %6 = alloca ptr, align 8
  %7 = alloca i32, align 4
  %8 = alloca i32, align 4
  %9 = alloca ptr, align 8
  %10 = alloca i32, align 4
  %11 = alloca i32, align 4
  %12 = alloca ptr, align 8
  %13 = alloca i32, align 4
  %14 = alloca i32, align 4
  %15 = alloca i32, align 4
  %16 = alloca i32, align 4
  %17 = alloca i32, align 4
  %18 = alloca i32, align 4
  %19 = alloca i32, align 4
  %20 = alloca i32, align 4
  %21 = alloca i32, align 4
  store i32 %0, ptr %4, align 4, !tbaa !26
  store i32 %1, ptr %5, align 4, !tbaa !26
  store ptr %2, ptr %6, align 8, !tbaa !3
  call void @llvm.lifetime.start.p0(i64 4, ptr %7) #6
  %22 = load i32, ptr %5, align 4, !tbaa !26
  %23 = ashr i32 %22, 1
  store i32 %23, ptr %7, align 4, !tbaa !26
  call void @llvm.lifetime.start.p0(i64 4, ptr %8) #6
  %24 = load i32, ptr %5, align 4, !tbaa !26
  %25 = ashr i32 %24, 1
  store i32 %25, ptr %8, align 4, !tbaa !26
  %26 = load i32, ptr %5, align 4, !tbaa !26
  %27 = and i32 %26, 1
  %28 = icmp eq i32 %27, 0
  br i1 %28, label %29, label %32

29:                                               ; preds = %3
  %30 = load i32, ptr %7, align 4, !tbaa !26
  %31 = add nsw i32 %30, -1
  store i32 %31, ptr %7, align 4, !tbaa !26
  br label %32

32:                                               ; preds = %29, %3
  call void @llvm.lifetime.start.p0(i64 8, ptr %9) #6
  %33 = load i32, ptr %4, align 4, !tbaa !26
  %34 = sext i32 %33 to i64
  %35 = mul i64 %34, 2
  %36 = call ptr @lv_malloc(i64 noundef %35)
  store ptr %36, ptr %9, align 8, !tbaa !3
  call void @llvm.lifetime.start.p0(i64 4, ptr %10) #6
  call void @llvm.lifetime.start.p0(i64 4, ptr %11) #6
  call void @llvm.lifetime.start.p0(i64 8, ptr %12) #6
  %37 = load ptr, ptr %6, align 8, !tbaa !3
  store ptr %37, ptr %12, align 8, !tbaa !3
  store i32 0, ptr %11, align 4, !tbaa !26
  br label %38

38:                                               ; preds = %120, %32
  %39 = load i32, ptr %11, align 4, !tbaa !26
  %40 = load i32, ptr %4, align 4, !tbaa !26
  %41 = icmp slt i32 %39, %40
  br i1 %41, label %42, label %123

42:                                               ; preds = %38
  call void @llvm.lifetime.start.p0(i64 4, ptr %13) #6
  %43 = load ptr, ptr %12, align 8, !tbaa !3
  %44 = load i32, ptr %4, align 4, !tbaa !26
  %45 = sub nsw i32 %44, 1
  %46 = sext i32 %45 to i64
  %47 = getelementptr inbounds i16, ptr %43, i64 %46
  %48 = load i16, ptr %47, align 2, !tbaa !54
  %49 = zext i16 %48 to i32
  %50 = load i32, ptr %5, align 4, !tbaa !26
  %51 = mul nsw i32 %49, %50
  store i32 %51, ptr %13, align 4, !tbaa !26
  %52 = load i32, ptr %4, align 4, !tbaa !26
  %53 = sub nsw i32 %52, 1
  store i32 %53, ptr %10, align 4, !tbaa !26
  br label %54

54:                                               ; preds = %106, %42
  %55 = load i32, ptr %10, align 4, !tbaa !26
  %56 = icmp sge i32 %55, 0
  br i1 %56, label %57, label %109

57:                                               ; preds = %54
  %58 = load i32, ptr %13, align 4, !tbaa !26
  %59 = trunc i32 %58 to i16
  %60 = load ptr, ptr %9, align 8, !tbaa !3
  %61 = load i32, ptr %10, align 4, !tbaa !26
  %62 = sext i32 %61 to i64
  %63 = getelementptr inbounds i16, ptr %60, i64 %62
  store i16 %59, ptr %63, align 2, !tbaa !54
  call void @llvm.lifetime.start.p0(i64 4, ptr %14) #6
  store i32 0, ptr %14, align 4, !tbaa !26
  %64 = load i32, ptr %10, align 4, !tbaa !26
  %65 = load i32, ptr %8, align 4, !tbaa !26
  %66 = add nsw i32 %64, %65
  %67 = load i32, ptr %4, align 4, !tbaa !26
  %68 = icmp slt i32 %66, %67
  br i1 %68, label %69, label %78

69:                                               ; preds = %57
  %70 = load ptr, ptr %12, align 8, !tbaa !3
  %71 = load i32, ptr %10, align 4, !tbaa !26
  %72 = load i32, ptr %8, align 4, !tbaa !26
  %73 = add nsw i32 %71, %72
  %74 = sext i32 %73 to i64
  %75 = getelementptr inbounds i16, ptr %70, i64 %74
  %76 = load i16, ptr %75, align 2, !tbaa !54
  %77 = zext i16 %76 to i32
  store i32 %77, ptr %14, align 4, !tbaa !26
  br label %78

78:                                               ; preds = %69, %57
  %79 = load i32, ptr %14, align 4, !tbaa !26
  %80 = load i32, ptr %13, align 4, !tbaa !26
  %81 = sub i32 %80, %79
  store i32 %81, ptr %13, align 4, !tbaa !26
  call void @llvm.lifetime.start.p0(i64 4, ptr %15) #6
  %82 = load i32, ptr %10, align 4, !tbaa !26
  %83 = load i32, ptr %7, align 4, !tbaa !26
  %84 = sub nsw i32 %82, %83
  %85 = sub nsw i32 %84, 1
  %86 = icmp slt i32 %85, 0
  br i1 %86, label %87, label %92

87:                                               ; preds = %78
  %88 = load ptr, ptr %12, align 8, !tbaa !3
  %89 = getelementptr inbounds i16, ptr %88, i64 0
  %90 = load i16, ptr %89, align 2, !tbaa !54
  %91 = zext i16 %90 to i32
  store i32 %91, ptr %15, align 4, !tbaa !26
  br label %102

92:                                               ; preds = %78
  %93 = load ptr, ptr %12, align 8, !tbaa !3
  %94 = load i32, ptr %10, align 4, !tbaa !26
  %95 = load i32, ptr %7, align 4, !tbaa !26
  %96 = sub nsw i32 %94, %95
  %97 = sub nsw i32 %96, 1
  %98 = sext i32 %97 to i64
  %99 = getelementptr inbounds i16, ptr %93, i64 %98
  %100 = load i16, ptr %99, align 2, !tbaa !54
  %101 = zext i16 %100 to i32
  store i32 %101, ptr %15, align 4, !tbaa !26
  br label %102

102:                                              ; preds = %92, %87
  %103 = load i32, ptr %15, align 4, !tbaa !26
  %104 = load i32, ptr %13, align 4, !tbaa !26
  %105 = add i32 %104, %103
  store i32 %105, ptr %13, align 4, !tbaa !26
  call void @llvm.lifetime.end.p0(i64 4, ptr %15) #6
  call void @llvm.lifetime.end.p0(i64 4, ptr %14) #6
  br label %106

106:                                              ; preds = %102
  %107 = load i32, ptr %10, align 4, !tbaa !26
  %108 = add nsw i32 %107, -1
  store i32 %108, ptr %10, align 4, !tbaa !26
  br label %54, !llvm.loop !62

109:                                              ; preds = %54
  %110 = load ptr, ptr %12, align 8, !tbaa !3
  %111 = load ptr, ptr %9, align 8, !tbaa !3
  %112 = load i32, ptr %4, align 4, !tbaa !26
  %113 = sext i32 %112 to i64
  %114 = mul i64 %113, 2
  %115 = call ptr @lv_memcpy(ptr noundef %110, ptr noundef %111, i64 noundef %114)
  %116 = load i32, ptr %4, align 4, !tbaa !26
  %117 = load ptr, ptr %12, align 8, !tbaa !3
  %118 = sext i32 %116 to i64
  %119 = getelementptr inbounds i16, ptr %117, i64 %118
  store ptr %119, ptr %12, align 8, !tbaa !3
  call void @llvm.lifetime.end.p0(i64 4, ptr %13) #6
  br label %120

120:                                              ; preds = %109
  %121 = load i32, ptr %11, align 4, !tbaa !26
  %122 = add nsw i32 %121, 1
  store i32 %122, ptr %11, align 4, !tbaa !26
  br label %38, !llvm.loop !63

123:                                              ; preds = %38
  call void @llvm.lifetime.start.p0(i64 4, ptr %16) #6
  call void @llvm.lifetime.start.p0(i64 4, ptr %17) #6
  store i32 16320, ptr %17, align 4, !tbaa !26
  call void @llvm.lifetime.start.p0(i64 4, ptr %18) #6
  %124 = load i32, ptr %17, align 4, !tbaa !26
  %125 = load i32, ptr %5, align 4, !tbaa !26
  %126 = udiv i32 %124, %125
  store i32 %126, ptr %18, align 4, !tbaa !26
  store i32 0, ptr %16, align 4, !tbaa !26
  br label %127

127:                                              ; preds = %174, %123
  %128 = load i32, ptr %16, align 4, !tbaa !26
  %129 = load i32, ptr %4, align 4, !tbaa !26
  %130 = load i32, ptr %4, align 4, !tbaa !26
  %131 = mul i32 %129, %130
  %132 = icmp ult i32 %128, %131
  br i1 %132, label %133, label %177

133:                                              ; preds = %127
  %134 = load ptr, ptr %6, align 8, !tbaa !3
  %135 = load i32, ptr %16, align 4, !tbaa !26
  %136 = zext i32 %135 to i64
  %137 = getelementptr inbounds nuw i16, ptr %134, i64 %136
  %138 = load i16, ptr %137, align 2, !tbaa !54
  %139 = zext i16 %138 to i32
  %140 = icmp eq i32 %139, 0
  br i1 %140, label %141, label %142

141:                                              ; preds = %133
  br label %174

142:                                              ; preds = %133
  %143 = load ptr, ptr %6, align 8, !tbaa !3
  %144 = load i32, ptr %16, align 4, !tbaa !26
  %145 = zext i32 %144 to i64
  %146 = getelementptr inbounds nuw i16, ptr %143, i64 %145
  %147 = load i16, ptr %146, align 2, !tbaa !54
  %148 = zext i16 %147 to i32
  %149 = load i32, ptr %17, align 4, !tbaa !26
  %150 = icmp eq i32 %148, %149
  br i1 %150, label %151, label %158

151:                                              ; preds = %142
  %152 = load i32, ptr %18, align 4, !tbaa !26
  %153 = trunc i32 %152 to i16
  %154 = load ptr, ptr %6, align 8, !tbaa !3
  %155 = load i32, ptr %16, align 4, !tbaa !26
  %156 = zext i32 %155 to i64
  %157 = getelementptr inbounds nuw i16, ptr %154, i64 %156
  store i16 %153, ptr %157, align 2, !tbaa !54
  br label %172

158:                                              ; preds = %142
  %159 = load ptr, ptr %6, align 8, !tbaa !3
  %160 = load i32, ptr %16, align 4, !tbaa !26
  %161 = zext i32 %160 to i64
  %162 = getelementptr inbounds nuw i16, ptr %159, i64 %161
  %163 = load i16, ptr %162, align 2, !tbaa !54
  %164 = zext i16 %163 to i32
  %165 = load i32, ptr %5, align 4, !tbaa !26
  %166 = sdiv i32 %164, %165
  %167 = trunc i32 %166 to i16
  %168 = load ptr, ptr %6, align 8, !tbaa !3
  %169 = load i32, ptr %16, align 4, !tbaa !26
  %170 = zext i32 %169 to i64
  %171 = getelementptr inbounds nuw i16, ptr %168, i64 %170
  store i16 %167, ptr %171, align 2, !tbaa !54
  br label %172

172:                                              ; preds = %158, %151
  br label %173

173:                                              ; preds = %172
  br label %174

174:                                              ; preds = %173, %141
  %175 = load i32, ptr %16, align 4, !tbaa !26
  %176 = add i32 %175, 1
  store i32 %176, ptr %16, align 4, !tbaa !26
  br label %127, !llvm.loop !64

177:                                              ; preds = %127
  store i32 0, ptr %10, align 4, !tbaa !26
  br label %178

178:                                              ; preds = %304, %177
  %179 = load i32, ptr %10, align 4, !tbaa !26
  %180 = load i32, ptr %4, align 4, !tbaa !26
  %181 = icmp slt i32 %179, %180
  br i1 %181, label %182, label %307

182:                                              ; preds = %178
  %183 = load ptr, ptr %6, align 8, !tbaa !3
  %184 = load i32, ptr %10, align 4, !tbaa !26
  %185 = sext i32 %184 to i64
  %186 = getelementptr inbounds i16, ptr %183, i64 %185
  store ptr %186, ptr %12, align 8, !tbaa !3
  call void @llvm.lifetime.start.p0(i64 4, ptr %19) #6
  %187 = load ptr, ptr %12, align 8, !tbaa !3
  %188 = getelementptr inbounds i16, ptr %187, i64 0
  %189 = load i16, ptr %188, align 2, !tbaa !54
  %190 = zext i16 %189 to i32
  %191 = load i32, ptr %5, align 4, !tbaa !26
  %192 = mul nsw i32 %190, %191
  store i32 %192, ptr %19, align 4, !tbaa !26
  store i32 0, ptr %11, align 4, !tbaa !26
  br label %193

193:                                              ; preds = %273, %182
  %194 = load i32, ptr %11, align 4, !tbaa !26
  %195 = load i32, ptr %4, align 4, !tbaa !26
  %196 = icmp slt i32 %194, %195
  br i1 %196, label %197, label %280

197:                                              ; preds = %193
  %198 = load i32, ptr %19, align 4, !tbaa !26
  %199 = icmp slt i32 %198, 0
  br i1 %199, label %200, label %201

200:                                              ; preds = %197
  br label %204

201:                                              ; preds = %197
  %202 = load i32, ptr %19, align 4, !tbaa !26
  %203 = ashr i32 %202, 6
  br label %204

204:                                              ; preds = %201, %200
  %205 = phi i32 [ 0, %200 ], [ %203, %201 ]
  %206 = trunc i32 %205 to i16
  %207 = load ptr, ptr %9, align 8, !tbaa !3
  %208 = load i32, ptr %11, align 4, !tbaa !26
  %209 = sext i32 %208 to i64
  %210 = getelementptr inbounds i16, ptr %207, i64 %209
  store i16 %206, ptr %210, align 2, !tbaa !54
  call void @llvm.lifetime.start.p0(i64 4, ptr %20) #6
  %211 = load i32, ptr %11, align 4, !tbaa !26
  %212 = load i32, ptr %8, align 4, !tbaa !26
  %213 = sub nsw i32 %211, %212
  %214 = icmp sle i32 %213, 0
  br i1 %214, label %215, label %220

215:                                              ; preds = %204
  %216 = load ptr, ptr %12, align 8, !tbaa !3
  %217 = getelementptr inbounds i16, ptr %216, i64 0
  %218 = load i16, ptr %217, align 2, !tbaa !54
  %219 = zext i16 %218 to i32
  store i32 %219, ptr %20, align 4, !tbaa !26
  br label %233

220:                                              ; preds = %204
  %221 = load ptr, ptr %6, align 8, !tbaa !3
  %222 = load i32, ptr %11, align 4, !tbaa !26
  %223 = load i32, ptr %8, align 4, !tbaa !26
  %224 = sub nsw i32 %222, %223
  %225 = load i32, ptr %4, align 4, !tbaa !26
  %226 = mul nsw i32 %224, %225
  %227 = load i32, ptr %10, align 4, !tbaa !26
  %228 = add nsw i32 %226, %227
  %229 = sext i32 %228 to i64
  %230 = getelementptr inbounds i16, ptr %221, i64 %229
  %231 = load i16, ptr %230, align 2, !tbaa !54
  %232 = zext i16 %231 to i32
  store i32 %232, ptr %20, align 4, !tbaa !26
  br label %233

233:                                              ; preds = %220, %215
  %234 = load i32, ptr %20, align 4, !tbaa !26
  %235 = load i32, ptr %19, align 4, !tbaa !26
  %236 = sub i32 %235, %234
  store i32 %236, ptr %19, align 4, !tbaa !26
  call void @llvm.lifetime.start.p0(i64 4, ptr %21) #6
  %237 = load i32, ptr %11, align 4, !tbaa !26
  %238 = load i32, ptr %7, align 4, !tbaa !26
  %239 = add nsw i32 %237, %238
  %240 = add nsw i32 %239, 1
  %241 = load i32, ptr %4, align 4, !tbaa !26
  %242 = icmp slt i32 %240, %241
  br i1 %242, label %243, label %257

243:                                              ; preds = %233
  %244 = load ptr, ptr %6, align 8, !tbaa !3
  %245 = load i32, ptr %11, align 4, !tbaa !26
  %246 = load i32, ptr %7, align 4, !tbaa !26
  %247 = add nsw i32 %245, %246
  %248 = add nsw i32 %247, 1
  %249 = load i32, ptr %4, align 4, !tbaa !26
  %250 = mul nsw i32 %248, %249
  %251 = load i32, ptr %10, align 4, !tbaa !26
  %252 = add nsw i32 %250, %251
  %253 = sext i32 %252 to i64
  %254 = getelementptr inbounds i16, ptr %244, i64 %253
  %255 = load i16, ptr %254, align 2, !tbaa !54
  %256 = zext i16 %255 to i32
  store i32 %256, ptr %21, align 4, !tbaa !26
  br label %269

257:                                              ; preds = %233
  %258 = load ptr, ptr %6, align 8, !tbaa !3
  %259 = load i32, ptr %4, align 4, !tbaa !26
  %260 = sub nsw i32 %259, 1
  %261 = load i32, ptr %4, align 4, !tbaa !26
  %262 = mul nsw i32 %260, %261
  %263 = load i32, ptr %10, align 4, !tbaa !26
  %264 = add nsw i32 %262, %263
  %265 = sext i32 %264 to i64
  %266 = getelementptr inbounds i16, ptr %258, i64 %265
  %267 = load i16, ptr %266, align 2, !tbaa !54
  %268 = zext i16 %267 to i32
  store i32 %268, ptr %21, align 4, !tbaa !26
  br label %269

269:                                              ; preds = %257, %243
  %270 = load i32, ptr %21, align 4, !tbaa !26
  %271 = load i32, ptr %19, align 4, !tbaa !26
  %272 = add i32 %271, %270
  store i32 %272, ptr %19, align 4, !tbaa !26
  call void @llvm.lifetime.end.p0(i64 4, ptr %21) #6
  call void @llvm.lifetime.end.p0(i64 4, ptr %20) #6
  br label %273

273:                                              ; preds = %269
  %274 = load i32, ptr %11, align 4, !tbaa !26
  %275 = add nsw i32 %274, 1
  store i32 %275, ptr %11, align 4, !tbaa !26
  %276 = load i32, ptr %4, align 4, !tbaa !26
  %277 = load ptr, ptr %12, align 8, !tbaa !3
  %278 = sext i32 %276 to i64
  %279 = getelementptr inbounds i16, ptr %277, i64 %278
  store ptr %279, ptr %12, align 8, !tbaa !3
  br label %193, !llvm.loop !65

280:                                              ; preds = %193
  %281 = load ptr, ptr %6, align 8, !tbaa !3
  %282 = load i32, ptr %10, align 4, !tbaa !26
  %283 = sext i32 %282 to i64
  %284 = getelementptr inbounds i16, ptr %281, i64 %283
  store ptr %284, ptr %12, align 8, !tbaa !3
  store i32 0, ptr %11, align 4, !tbaa !26
  br label %285

285:                                              ; preds = %296, %280
  %286 = load i32, ptr %11, align 4, !tbaa !26
  %287 = load i32, ptr %4, align 4, !tbaa !26
  %288 = icmp slt i32 %286, %287
  br i1 %288, label %289, label %303

289:                                              ; preds = %285
  %290 = load ptr, ptr %9, align 8, !tbaa !3
  %291 = load i32, ptr %11, align 4, !tbaa !26
  %292 = sext i32 %291 to i64
  %293 = getelementptr inbounds i16, ptr %290, i64 %292
  %294 = load i16, ptr %293, align 2, !tbaa !54
  %295 = load ptr, ptr %12, align 8, !tbaa !3
  store i16 %294, ptr %295, align 2, !tbaa !54
  br label %296

296:                                              ; preds = %289
  %297 = load i32, ptr %11, align 4, !tbaa !26
  %298 = add nsw i32 %297, 1
  store i32 %298, ptr %11, align 4, !tbaa !26
  %299 = load i32, ptr %4, align 4, !tbaa !26
  %300 = load ptr, ptr %12, align 8, !tbaa !3
  %301 = sext i32 %299 to i64
  %302 = getelementptr inbounds i16, ptr %300, i64 %301
  store ptr %302, ptr %12, align 8, !tbaa !3
  br label %285, !llvm.loop !66

303:                                              ; preds = %285
  call void @llvm.lifetime.end.p0(i64 4, ptr %19) #6
  br label %304

304:                                              ; preds = %303
  %305 = load i32, ptr %10, align 4, !tbaa !26
  %306 = add nsw i32 %305, 1
  store i32 %306, ptr %10, align 4, !tbaa !26
  br label %178, !llvm.loop !67

307:                                              ; preds = %178
  %308 = load ptr, ptr %9, align 8, !tbaa !3
  call void @lv_free(ptr noundef %308)
  call void @llvm.lifetime.end.p0(i64 4, ptr %18) #6
  call void @llvm.lifetime.end.p0(i64 4, ptr %17) #6
  call void @llvm.lifetime.end.p0(i64 4, ptr %16) #6
  call void @llvm.lifetime.end.p0(i64 8, ptr %12) #6
  call void @llvm.lifetime.end.p0(i64 4, ptr %11) #6
  call void @llvm.lifetime.end.p0(i64 4, ptr %10) #6
  call void @llvm.lifetime.end.p0(i64 8, ptr %9) #6
  call void @llvm.lifetime.end.p0(i64 4, ptr %8) #6
  call void @llvm.lifetime.end.p0(i64 4, ptr %7) #6
  ret void
}