; Function Attrs: nounwind uwtable
define internal fastcc void @shadow_blur_corner(i32 noundef %0, i32 noundef range(i32 -1073741824, 1073741825) %1, ptr noundef %2) unnamed_addr #0 {
  %4 = ashr i32 %1, 1
  %5 = and i32 %1, 1
  %6 = sext i32 %0 to i64
  %7 = shl nsw i64 %6, 1
  %8 = tail call ptr @lv_malloc(i64 noundef %7) #6
  %9 = icmp sgt i32 %0, 0
  br i1 %9, label %.lr.ph.us.preheader, label %._crit_edge137

.lr.ph.us.preheader:                              ; preds = %3
  %10 = add nsw i32 %0, -1
  %11 = zext nneg i32 %10 to i64
  %12 = add nsw i32 %5, %4
  %13 = sext i32 %4 to i64
  br label %.lr.ph.us

.lr.ph.us:                                        ; preds = %.lr.ph.us.preheader, %._crit_edge.us
  %.0116134.us = phi ptr [ %34, %._crit_edge.us ], [ %2, %.lr.ph.us.preheader ]
  %.0118133.us = phi i32 [ %35, %._crit_edge.us ], [ 0, %.lr.ph.us.preheader ]
  %14 = getelementptr inbounds i16, ptr %.0116134.us, i64 %11
  %15 = load i16, ptr %14, align 2, !tbaa !29
  %16 = zext i16 %15 to i32
  %17 = mul nsw i32 %1, %16
  br label %18

18:                                               ; preds = %.lr.ph.us, %27
  %indvars.iv.in = phi i64 [ %6, %.lr.ph.us ], [ %indvars.iv, %27 ]
  %.0115131.us = phi i32 [ %17, %.lr.ph.us ], [ %31, %27 ]
  %indvars.iv = add nsw i64 %indvars.iv.in, -1
  %19 = trunc i32 %.0115131.us to i16
  %20 = getelementptr inbounds i16, ptr %8, i64 %indvars.iv
  store i16 %19, ptr %20, align 2, !tbaa !29
  %21 = add nsw i64 %indvars.iv, %13
  %22 = icmp slt i64 %21, %6
  br i1 %22, label %23, label %27

23:                                               ; preds = %18
  %24 = getelementptr inbounds i16, ptr %.0116134.us, i64 %21
  %25 = load i16, ptr %24, align 2, !tbaa !29
  %26 = zext i16 %25 to i32
  br label %27

27:                                               ; preds = %23, %18
  %.0114.us = phi i32 [ %26, %23 ], [ 0, %18 ]
  %28 = sub i32 %.0115131.us, %.0114.us
  %29 = trunc nuw nsw i64 %indvars.iv to i32
  %30 = sub i32 %29, %12
  %narrow.us = tail call i32 @llvm.smax.i32(i32 %30, i32 0)
  %.0113.in.in.idx.us = zext nneg i32 %narrow.us to i64
  %.0113.in.in.us = getelementptr inbounds i16, ptr %.0116134.us, i64 %.0113.in.in.idx.us
  %.0113.in.us = load i16, ptr %.0113.in.in.us, align 2, !tbaa !29
  %.0113.us = zext i16 %.0113.in.us to i32
  %31 = add i32 %28, %.0113.us
  %32 = icmp sgt i64 %indvars.iv.in, 1
  br i1 %32, label %18, label %._crit_edge.us, !llvm.loop !56

._crit_edge.us:                                   ; preds = %27
  %33 = tail call ptr @lv_memcpy(ptr noundef nonnull %.0116134.us, ptr noundef nonnull %8, i64 noundef %7) #6
  %34 = getelementptr inbounds i16, ptr %.0116134.us, i64 %6
  %35 = add nuw nsw i32 %.0118133.us, 1
  %exitcond.not = icmp eq i32 %35, %0
  br i1 %exitcond.not, label %._crit_edge137, label %.lr.ph.us, !llvm.loop !57

._crit_edge137:                                   ; preds = %._crit_edge.us, %3
  %36 = mul i32 %0, %0
  %.not = icmp eq i32 %36, 0
  br i1 %.not, label %.preheader130, label %.lr.ph

.lr.ph:                                           ; preds = %._crit_edge137
  %37 = udiv i32 16320, %1
  %wide.trip.count = zext i32 %36 to i64
  br label %65

.preheader130:                                    ; preds = %71, %._crit_edge137
  br i1 %9, label %.lr.ph147, label %._crit_edge148

.lr.ph147:                                        ; preds = %.preheader130
  %38 = add nsw i32 %5, %4
  %39 = add nsw i32 %0, -1
  %40 = sext i32 %4 to i64
  %wide.trip.count176 = zext nneg i32 %0 to i64
  br label %.lr.ph142.us

.lr.ph142.us:                                     ; preds = %._crit_edge.us149, %.lr.ph147
  %indvars.iv172 = phi i64 [ %indvars.iv.next173, %._crit_edge.us149 ], [ 0, %.lr.ph147 ]
  %41 = getelementptr inbounds i16, ptr %2, i64 %indvars.iv172
  %42 = load i16, ptr %41, align 2, !tbaa !29
  %43 = zext i16 %42 to i32
  %44 = mul nsw i32 %1, %43
  %invariant.gep = getelementptr i16, ptr %2, i64 %indvars.iv172
  %45 = getelementptr i16, ptr %2, i64 %indvars.iv172
  br label %49

._crit_edge.us149:                                ; preds = %.lr.ph145.us
  %indvars.iv.next173 = add nuw nsw i64 %indvars.iv172, 1
  %exitcond177.not = icmp eq i64 %indvars.iv.next173, %wide.trip.count176
  br i1 %exitcond177.not, label %._crit_edge148, label %.lr.ph142.us, !llvm.loop !58

.lr.ph145.us:                                     ; preds = %49, %.lr.ph145.us
  %indvars.iv167 = phi i64 [ %indvars.iv.next168, %.lr.ph145.us ], [ 0, %49 ]
  %.2144.us = phi ptr [ %48, %.lr.ph145.us ], [ %41, %49 ]
  %46 = getelementptr inbounds i16, ptr %8, i64 %indvars.iv167
  %47 = load i16, ptr %46, align 2, !tbaa !29
  store i16 %47, ptr %.2144.us, align 2, !tbaa !29
  %indvars.iv.next168 = add nuw nsw i64 %indvars.iv167, 1
  %48 = getelementptr inbounds i16, ptr %.2144.us, i64 %6
  %exitcond171.not = icmp eq i64 %indvars.iv.next168, %wide.trip.count176
  br i1 %exitcond171.not, label %._crit_edge.us149, label %.lr.ph145.us, !llvm.loop !59

49:                                               ; preds = %.lr.ph142.us, %49
  %indvars.iv162 = phi i64 [ 0, %.lr.ph142.us ], [ %indvars.iv.next163, %49 ]
  %.0109141.us = phi i32 [ %44, %.lr.ph142.us ], [ %63, %49 ]
  %.1117140.us = phi ptr [ %41, %.lr.ph142.us ], [ %64, %49 ]
  %50 = icmp slt i32 %.0109141.us, 0
  %51 = lshr i32 %.0109141.us, 6
  %52 = trunc i32 %51 to i16
  %53 = select i1 %50, i16 0, i16 %52
  %54 = getelementptr inbounds i16, ptr %8, i64 %indvars.iv162
  store i16 %53, ptr %54, align 2, !tbaa !29
  %55 = sub nsw i64 %indvars.iv162, %40
  %56 = icmp slt i64 %55, 1
  %57 = mul nsw i64 %55, %6
  %gep = getelementptr i16, ptr %invariant.gep, i64 %57
  %.0108.in.in.us = select i1 %56, ptr %.1117140.us, ptr %gep
  %.0108.in.us = load i16, ptr %.0108.in.in.us, align 2, !tbaa !29
  %.0108.us = zext i16 %.0108.in.us to i32
  %58 = sub i32 %.0109141.us, %.0108.us
  %59 = trunc nuw nsw i64 %indvars.iv162 to i32
  %60 = add i32 %38, %59
  %61 = icmp slt i32 %60, %0
  %.pn129.us = select i1 %61, i32 %60, i32 %39
  %.pn128.us = mul nsw i32 %.pn129.us, %0
  %62 = sext i32 %.pn128.us to i64
  %.0.in.in.us = getelementptr i16, ptr %45, i64 %62
  %.0.in.us = load i16, ptr %.0.in.in.us, align 2, !tbaa !29
  %.0.us = zext i16 %.0.in.us to i32
  %63 = add i32 %58, %.0.us
  %indvars.iv.next163 = add nuw nsw i64 %indvars.iv162, 1
  %64 = getelementptr inbounds i16, ptr %.1117140.us, i64 %6
  %exitcond166.not = icmp eq i64 %indvars.iv.next163, %wide.trip.count176
  br i1 %exitcond166.not, label %.lr.ph145.us, label %49, !llvm.loop !60

65:                                               ; preds = %.lr.ph, %71
  %indvars.iv158 = phi i64 [ 0, %.lr.ph ], [ %indvars.iv.next159, %71 ]
  %66 = getelementptr inbounds nuw i16, ptr %2, i64 %indvars.iv158
  %67 = load i16, ptr %66, align 2, !tbaa !29
  switch i16 %67, label %68 [
    i16 0, label %71
    i16 16320, label %.sink.split
  ]

68:                                               ; preds = %65
  %69 = zext i16 %67 to i32
  %70 = sdiv i32 %69, %1
  br label %.sink.split

.sink.split:                                      ; preds = %65, %68
  %.sink.in = phi i32 [ %70, %68 ], [ %37, %65 ]
  %.sink = trunc i32 %.sink.in to i16
  store i16 %.sink, ptr %66, align 2, !tbaa !29
  br label %71

71:                                               ; preds = %.sink.split, %65
  %indvars.iv.next159 = add nuw nsw i64 %indvars.iv158, 1
  %exitcond161.not = icmp eq i64 %indvars.iv.next159, %wide.trip.count
  br i1 %exitcond161.not, label %.preheader130, label %65, !llvm.loop !61

._crit_edge148:                                   ; preds = %._crit_edge.us149, %.preheader130
  tail call void @lv_free(ptr noundef %8) #6
  ret void
}